#include <math.h>
#include <stdio.h>
#include <stdlib.h>
#include <string.h>

void main()
{
	int i,j,s=0;
	char w1[50],w2[50],*p1,*p2;
	scanf("%s%s",&w1,&w2);
	p1=w1;
	p2=w2;
	for(j=0;;j++)
	{
		for(i=0;*(p1+i)!='\0';i++)
		{
			if(*(p2+i+j)!=*(p1+i))
			{
				s=0;
				break;
			}
			else 
				s=1;
		}
		if(s==1)
		{
			printf("%d",j);
			break;
		}
    if(*(p2+j)=='\0')
	{
		printf("0");
		break;
	}
	}
	
}

