; ModuleID = 'source-C-CXX/44/262.c'
source_filename = "source-C-CXX/44/262.c"
target datalayout = "e-m:e-p270:32:32-p271:32:32-p272:64:64-i64:64-f80:128-n8:16:32:64-S128"
target triple = "x86_64-pc-linux-gnu"

@.str = private unnamed_addr constant [5 x i8] c"%s%s\00", align 1
@.str.1 = private unnamed_addr constant [3 x i8] c"%d\00", align 1

; Function Attrs: nofree nounwind sspstrong uwtable
define dso_local void @main() local_unnamed_addr #0 {
  %1 = alloca [50 x i8], align 16
  %2 = alloca [50 x i8], align 16
  %3 = getelementptr inbounds [50 x i8], [50 x i8]* %1, i64 0, i64 0
  call void @llvm.lifetime.start.p0i8(i64 50, i8* nonnull %3) #4
  %4 = getelementptr inbounds [50 x i8], [50 x i8]* %2, i64 0, i64 0
  call void @llvm.lifetime.start.p0i8(i64 50, i8* nonnull %4) #4
  %5 = call i32 (i8*, ...) @__isoc99_scanf(i8* getelementptr inbounds ([5 x i8], [5 x i8]* @.str, i64 0, i64 0), [50 x i8]* nonnull %1, [50 x i8]* nonnull %2)
  %6 = load i8, i8* %3, align 16, !tbaa !5
  %7 = icmp eq i8 %6, 0
  br i1 %7, label %8, label %14

8:                                                ; preds = %0, %8
  %9 = phi i64 [ %13, %8 ], [ 0, %0 ]
  %10 = getelementptr inbounds [50 x i8], [50 x i8]* %2, i64 0, i64 %9
  %11 = load i8, i8* %10, align 1, !tbaa !5
  %12 = icmp eq i8 %11, 0
  %13 = add nuw i64 %9, 1
  br i1 %12, label %35, label %8

14:                                               ; preds = %0, %37
  %15 = phi i64 [ %38, %37 ], [ 0, %0 ]
  br label %20

16:                                               ; preds = %20
  %17 = getelementptr inbounds [50 x i8], [50 x i8]* %1, i64 0, i64 %27
  %18 = load i8, i8* %17, align 1, !tbaa !5
  %19 = icmp eq i8 %18, 0
  br i1 %19, label %28, label %20, !llvm.loop !8

20:                                               ; preds = %14, %16
  %21 = phi i64 [ 0, %14 ], [ %27, %16 ]
  %22 = phi i8 [ %6, %14 ], [ %18, %16 ]
  %23 = getelementptr inbounds [50 x i8], [50 x i8]* %2, i64 0, i64 %21
  %24 = getelementptr inbounds i8, i8* %23, i64 %15
  %25 = load i8, i8* %24, align 1, !tbaa !5
  %26 = icmp eq i8 %25, %22
  %27 = add nuw i64 %21, 1
  br i1 %26, label %16, label %31

28:                                               ; preds = %16
  %29 = trunc i64 %15 to i32
  %30 = call i32 (i8*, ...) @printf(i8* nonnull dereferenceable(1) getelementptr inbounds ([3 x i8], [3 x i8]* @.str.1, i64 0, i64 0), i32 %29)
  br label %39

31:                                               ; preds = %20
  %32 = getelementptr inbounds [50 x i8], [50 x i8]* %2, i64 0, i64 %15
  %33 = load i8, i8* %32, align 1, !tbaa !5
  %34 = icmp eq i8 %33, 0
  br i1 %34, label %35, label %37

35:                                               ; preds = %31, %8
  %36 = call i32 @putchar(i32 48)
  br label %39

37:                                               ; preds = %31
  %38 = add nuw i64 %15, 1
  br label %14

39:                                               ; preds = %35, %28
  call void @llvm.lifetime.end.p0i8(i64 50, i8* nonnull %4) #4
  call void @llvm.lifetime.end.p0i8(i64 50, i8* nonnull %3) #4
  ret void
}

; Function Attrs: argmemonly mustprogress nofree nosync nounwind willreturn
declare void @llvm.lifetime.start.p0i8(i64 immarg, i8* nocapture) #1

; Function Attrs: nofree nounwind
declare noundef i32 @__isoc99_scanf(i8* nocapture noundef readonly, ...) local_unnamed_addr #2

; Function Attrs: nofree nounwind
declare noundef i32 @printf(i8* nocapture noundef readonly, ...) local_unnamed_addr #2

; Function Attrs: argmemonly mustprogress nofree nosync nounwind willreturn
declare void @llvm.lifetime.end.p0i8(i64 immarg, i8* nocapture) #1

; Function Attrs: nofree nounwind
declare noundef i32 @putchar(i32 noundef) local_unnamed_addr #3


!llvm.module.flags = !{!0, !1, !2, !3}
!llvm.ident = !{!4}

!0 = !{i32 1, !"wchar_size", i32 4}
!1 = !{i32 7, !"PIC Level", i32 2}
!2 = !{i32 7, !"PIE Level", i32 2}
!3 = !{i32 7, !"uwtable", i32 1}
!4 = !{!"clang version 13.0.0"}
!5 = !{!6, !6, i64 0}
!6 = !{!"omnipotent char", !7, i64 0}
!7 = !{!"Simple C/C++ TBAA"}
!8 = distinct !{!8, !9}
!9 = !{!"llvm.loop.mustprogress"}
